(dp1
S'nombre_espacio'
p2
(dp3
S'length'
p4
I512
sS'unique'
p5
S'true'
p6
sS'sortable'
p7
I2
sS'sql'
p8
S'CHAR(512) UNIQUE'
p9
sS'notnull'
p10
I00
sS'type'
p11
S'string'
p12
ssS'id'
p13
(dp14
g4
I512
sg5
I00
sg7
I1
sg8
S'INTEGER PRIMARY KEY AUTOINCREMENT'
p15
sg10
I00
sg11
g13
ss.