(dp1
S'output'
p2
S'missing "pass" in view'
p3
sS'layer'
p4
S'ParserContainer'
p5
sS'code'
p6
S'response.write(\'<!DOCTYPE html>\\n<!--[if (gt IE 9)|!(IE)]><!-->\\n<html class="no-js" lang="\', escape=False)\nresponse.write(T.accepted_language or \'en\')\nresponse.write(\'"> <!--<![endif]-->\\n  <head>\\n    <meta charset="utf-8">\\n    <!-- www.phpied.com/conditional-comments-block-downloads/ -->\\n    <!-- Always force latest IE rendering engine\\n         (even in intranet) & Chrome Frame\\n         Remove this if you use the .htaccess -->\\n    <meta http-equiv="X-UA-Compatible" content="IE=edge\', escape=False)\nresponse.write(not request.is_local and \',chrome=1\' or \'\')\nresponse.write(\'">\\n    <!--  Mobile Viewport Fix\\n          j.mp/mobileviewport & davidbcalhoun.com/2010/viewport-metatag\\n          device-width: Occupy full width of the screen in its current orientation\\n          initial-scale = 1.0 retains dimensions instead of zooming out if page height > device height\\n          user-scalable = yes allows the user to zoom in -->\\n    <meta name="viewport" content="width=device-width, initial-scale=1.0">\\n    <title>\', escape=False)\nresponse.write(response.title or request.application)\nresponse.write(\'</title>\\n    <!-- http://dev.w3.org/html5/markup/meta.name.html -->\\n    <meta name="application-name" content="\', escape=False)\nresponse.write(request.application)\nresponse.write(\'">\\n    <!-- Speaking of Google, don\\\'t forget to set your site up:\\n         http://google.com/webmasters -->\\n    <meta name="google-site-verification" content="">\\n\\n    <!-- Bootstrap Core CSS -->\\n    <link href="\', escape=False)\nresponse.write(URL(\'static\',\'css/bootstrap.min.css\'))\nresponse.write(\'" rel="stylesheet">\\n\\n    <!-- Custom CSS -->\\n    <link href="\', escape=False)\nresponse.write(URL(\'static\',\'css/simple-sidebar.css\'))\nresponse.write(\'" rel="stylesheet">\\n    <link href="\', escape=False)\nresponse.write(URL(\'static\',\'css/requestTable.css\'))\nresponse.write(\'" rel="stylesheet">\\n\\n    <!-- HTML5 Shim and Respond.js IE8 support of HTML5 elements and media queries -->\\n    <!-- WARNING: Respond.js doesn\\\'t work if you view the page via file:// -->\\n    <!--[if lt IE 9]>\\n        <script src="https://oss.maxcdn.com/libs/html5shiv/3.7.0/html5shiv.js"></script>\\n        <script src="https://oss.maxcdn.com/libs/respond.js/1.4.2/respond.min.js"></script>\\n    <![endif]-->\\n    <!-- Favicons -->\\n    \', escape=False)\nresponse.write(\'<script type="text/javascript"><!--\\n    // These variables are used by the web2py_ajax_init function in web2py_ajax.js (which is loaded below).\\n    var w2p_ajax_confirm_message = "\', escape=False)\nresponse.write(T(\'Are you sure you want to delete this object?\'))\nresponse.write(\'";\\n    var w2p_ajax_disable_with_message = "\', escape=False)\nresponse.write(T(\'Working...\'))\nresponse.write(\'";\\n    var w2p_ajax_date_format = "\', escape=False)\nresponse.write(T(\'%Y-%m-%d\'))\nresponse.write(\'";\\n    var w2p_ajax_datetime_format = "\', escape=False)\nresponse.write(T(\'%Y-%m-%d %H:%M:%S\'))\nresponse.write(\'";\\n    var ajax_error_500 = \\\'\', escape=False)\nresponse.write(T.M(\'An error occured, please [[reload %s]] the page\') % URL(args=request.args, vars=request.get_vars))\nresponse.write("\'\\n    //--></script>\\n", escape=False)\nresponse.files.insert(0,URL(\'static\',\'js/jquery.js\'))\nresponse.files.insert(1,URL(\'static\',\'css/calendar.css\'))\nresponse.files.insert(2,URL(\'static\',\'js/calendar.js\'))\nresponse.files.insert(3,URL(\'static\',\'js/web2py.js\'))\nresponse.include_meta()\nresponse.include_files()\nresponse.write(\'\\n\', escape=False)\nresponse.write(\' <!-- this includes jquery.js, calendar.js/.css and web2py.js -->\\n    \', escape=False)\nresponse.write(\'\\n</head>\\n\\n<body>\\n\\n    <div class="jumbotron" id="Header">\\n\\n        <img src="\', escape=False)\nresponse.write(URL(\'static\',\'images/logob.png\'))\nresponse.write(\'" id="logob" >\\n        <img src="\', escape=False)\nresponse.write(URL(\'static\',\'images/logo.png\'))\nresponse.write(\'" id="logo" height="90%">\\n    </div>\\n\\n    <div id="wrapper">\\n            \', escape=False)\nresponse.write(\'\\n\\n\', escape=False)\nresponse.write(\'\\n        <!-- Sidebar -->\\n        <div id="sidebar-wrapper">\\n          \', escape=False)\nif response.menu:\n    response.write(\'\\n          \', escape=False)\n    response.write(MENU(response.menu, _class=\'sidebar-nav\',li_class=\'sidebar-brand\',ul_class=\'sidebar-nav\'))\n    response.write(\'\\n          \', escape=False)\n    pass\nresponse.write(\'\\n        </div>\\n        <div id="page-content-wrapper">\\n            \', escape=False)\nresponse.write(\'\\n\\n        <!-- Page Content -->\\n          <ul class="nav navbar-nav navbar-right">\\n            \', escape=False)\nresponse.write(\'auth\' in globals() and auth.navbar(\'Welcome\',mode=\'dropdown\') or \'\')\nresponse.write(\'\\n          </ul>\\n            <div class="container-fluid">\\n                <div class="row">\\n                    <div class="col-lg-12">\\n                        <center>\\n                            <h1>Bienvenido, Usuario.</h1>\\n                            <p>A continuaci\\xc3\\xb3n puede encontrar un resumen de sus \\xc3\\xbaltimos movimientos. </p>\\n                            <code><a href="#menu-toggle" class="" id="menu-toggle">Para ocultar clic aqu\\xc3\\xad</a></code>\\n                            </br>\\n                        </center>\\n                    </div>\\n                </div>\\n                <div class="row">\\n                    <div class="col-lg-8">\\n                        <div class="row">\\n                            <div class="rounded">\\n                                <div class="roundedwhite">\\n                                    <center>\\n                                        <h3>Solicitudes Recientes</h3>\\n                                        <hr WIDTH="30%">\\n                                        <p>De hace una semana o menos tiempo.</p>\\n                                    </center>\\n\\n<table class="table table-hover table-striped ">\\n    <thead>\\n        <th class="hColumns">Fecha</th>\\n        <th>Descripcion</th>\\n        <th class="hColumns">Estado</th>\\n        <th class="hColumns">Ubicaci\\xc3\\xb3n</th>\\n        <th class="hColumns">Otra Vaina</th>\\n        <th></th>\\n    </thead>\\n\\n    <tbody>\\n        <tr data-toggle="collapse" data-target="#accordion" class="clickable">\\n            <td class="hColumns">15-10-2015</td>\\n            <td>Urinario sin papel toilette...</td>\\n            <td class="hColumns">En espera</td>\\n            <td class="hColumns">MyS-523A</td>\\n            <td class="hColumns"><a href="">Gallinas Voladoras</a></td>\\n            <td>\\n                <a href="www.google.com">\\n                    <img src="\', escape=False)\nresponse.write(URL(\'static\',\'images/icon_inspect.png\'))\nresponse.write(\'" width="15px" ">\\n                </a>\\n            </td>\\n        </tr>\\n        <tr>\\n            <td colspan="6" style="padding:0">\\n                <div id="accordion" class="collapse"<div style="padding: 8px;">Ac\\xc3\\xa1 hay mucha informaci\\xc3\\xb3n super importante de la vida y cosas as\\xc3\\xad, como turumero y los tostones playeros.</div></div>\\n            </td>\\n        </tr>\\n        <tr data-toggle="collapse" data-target="#accordion2" class="clickable">\\n            <td class="hColumns">15-10-2015</td>\\n            <td>Urinario sin papel toilette...</td>\\n            <td class="hColumns">En espera</td>\\n            <td class="hColumns">MyS-523A</td>\\n            <td class="hColumns"><a href="">Gallinas Voladoras</a></td>\\n            <td>\\n                <a href="www.google.com">\\n                    <img src="\', escape=False)\nresponse.write(URL(\'static\',\'images/icon_inspect.png\'))\nresponse.write(\'" width="15px" ">\\n                </a>\\n            </td>\\n        </tr>\\n        <tr>\\n            <td colspan="6" style="padding:0">\\n                <div id="accordion2" class="collapse"><div style="padding: 8px;">Ac\\xc3\\xa1 hay mucha informaci\\xc3\\xb3n super importante de la vida y cosas as\\xc3\\xad, como turumero y los tostones playeros.</div></div>\\n            </td>\\n        </tr>\\n        <tr data-toggle="collapse" data-target="#accordion3" class="clickable">\\n            <td class="hColumns">15-10-2015</td>\\n            <td>Urinario sin papel toilette...</td>\\n            <td class="hColumns">En espera</td>\\n            <td class="hColumns">MyS-523A</td>\\n            <td class="hColumns">\\n                <a href="">Gallinas Voladoras</a></td>\\n            <td>\\n                <a href="www.google.com">\\n                    <img src="\', escape=False)\nresponse.write(URL(\'static\',\'images/icon_inspect.png\'))\nresponse.write(\'" width="15px" ">\\n                </a>\\n            </td>\\n        </tr>\\n        <tr>\\n            <td colspan="6" style="padding:0">\\n                <div id="accordion3" class="collapse"<div style="padding: 8px;">Ac\\xc3\\xa1 hay mucha informaci\\xc3\\xb3n super importante de la vida y cosas as\\xc3\\xad, como turumero y los tostones playeros.</div></div>\\n            </td>\\n        </tr>\\n        <tr data-toggle="collapse" data-target="#accordion4" class="clickable">\\n            <td class="hColumns">15-10-2015</td>\\n            <td>Urinario sin papel toilette...</td>\\n            <td class="hColumns">En espera</td>\\n            <td class="hColumns">MyS-523A</td>\\n            <td class="hColumns"><a href="">Gallinas Voladoras</a></td>\\n            <td>\\n                <a href="www.google.com">\\n                    <img src="\', escape=False)\nresponse.write(URL(\'static\',\'images/icon_inspect.png\'))\nresponse.write(\'" width="15px" ">\\n                </a>\\n            </td>\\n        </tr>\\n        <tr>\\n            <td colspan="6" style="padding:0">\\n                <div id="accordion4" class="collapse"><div style="padding: 8px;">Ac\\xc3\\xa1 hay mucha informaci\\xc3\\xb3n super importante de la vida y cosas as\\xc3\\xad, como turumero y los tostones playeros.</div></div>\\n            </td>\\n        </tr>\\n        <tr data-toggle="collapse" data-target="#accordion5" class="clickable">\\n            <td class="hColumns">15-10-2015</td>\\n            <td>Urinario sin papel toilette...</td>\\n            <td class="hColumns">En espera</td>\\n            <td class="hColumns">MyS-523A</td>\\n            <td class="hColumns"><a href="">Gallinas Voladoras</a></td>\\n            <td>\\n                <a href="www.google.com">\\n                    <img src="\', escape=False)\nresponse.write(URL(\'static\',\'images/icon_inspect.png\'))\nresponse.write(\'" width="15px" ">\\n                </a>\\n            </td>\\n        </tr>\\n        <tr>\\n            <td colspan="6" style="padding:0">\\n                <div id="accordion5" class="collapse"><div style="padding: 8px;">Ac\\xc3\\xa1 hay mucha informaci\\xc3\\xb3n super importante de la vida y cosas as\\xc3\\xad, como turumero y los tostones playeros.</div></div>\\n            </td>\\n        </tr>\\n        <tr data-toggle="collapse" data-target="#accordion6" class="clickable">\\n            <td class="hColumns">15-10-2015</td>\\n            <td>Urinario sin papel toilette...</td>\\n            <td class="hColumns">En espera</td>\\n            <td class="hColumns">MyS-523A</td>\\n            <td class="hColumns"><a href="">Gallinas Voladoras</a></td>\\n            <td>\\n                <a href="www.google.com">\\n                    <img src="\', escape=False)\nresponse.write(URL(\'static\',\'images/icon_inspect.png\'))\nresponse.write(\'" width="15px" ">\\n                </a>\\n            </td>\\n        </tr>\\n        <tr>\\n            <td colspan="6" style="padding:0">\\n                <div id="accordion6" class="collapse"><div style="padding: 8px;">Ac\\xc3\\xa1 hay mucha informaci\\xc3\\xb3n super importante de la vida y cosas as\\xc3\\xad, como turumero y los tostones playeros.</div></div>\\n            </td>\\n        </tr>\\n\\n\\n\\n<!-- borrar desde aca -->\\n\\n\\n\\n\\n\\n        <tr data-toggle="collapse" data-target="#accordion4" class="clickable">\\n            <td class="hColumns">15-10-2015</td>\\n            <td>Urinario sin papel toilette...</td>\\n            <td class="hColumns">En espera</td>\\n            <td class="hColumns">MyS-523A</td>\\n            <td class="hColumns"><a href="">Gallinas Voladoras</a></td>\\n            <td>\\n                <a href="www.google.com">\\n                    <img src="\', escape=False)\nresponse.write(URL(\'static\',\'images/icon_inspect.png\'))\nresponse.write(\'" width="15px" ">\\n                </a>\\n            </td>\\n        </tr>\\n        <tr>\\n            <td colspan="6" style="padding:0">\\n                <div id="accordion4" class="collapse"><div style="padding: 8px;">Ac\\xc3\\xa1 hay mucha informaci\\xc3\\xb3n super importante de la vida y cosas as\\xc3\\xad, como turumero y los tostones playeros.</div></div>\\n            </td>\\n        </tr>        <tr data-toggle="collapse" data-target="#accordion4" class="clickable">\\n            <td class="hColumns">15-10-2015</td>\\n            <td>Urinario sin papel toilette...</td>\\n            <td class="hColumns">En espera</td>\\n            <td class="hColumns">MyS-523A</td>\\n            <td class="hColumns"><a href="">Gallinas Voladoras</a></td>\\n            <td>\\n                <a href="www.google.com">\\n                    <img src="\', escape=False)\nresponse.write(URL(\'static\',\'images/icon_inspect.png\'))\nresponse.write(\'" width="15px" ">\\n                </a>\\n            </td>\\n        </tr>\\n        <tr>\\n            <td colspan="6" style="padding:0">\\n                <div id="accordion4" class="collapse"><div style="padding: 8px;">Ac\\xc3\\xa1 hay mucha informaci\\xc3\\xb3n super importante de la vida y cosas as\\xc3\\xad, como turumero y los tostones playeros.</div></div>\\n            </td>\\n        </tr>        <tr data-toggle="collapse" data-target="#accordion4" class="clickable">\\n            <td class="hColumns">15-10-2015</td>\\n            <td>Urinario sin papel toilette...</td>\\n            <td class="hColumns">En espera</td>\\n            <td class="hColumns">MyS-523A</td>\\n            <td class="hColumns"><a href="">Gallinas Voladoras</a></td>\\n            <td>\\n                <a href="www.google.com">\\n                    <img src="\', escape=False)\nresponse.write(URL(\'static\',\'images/icon_inspect.png\'))\nresponse.write(\'" width="15px" ">\\n                </a>\\n            </td>\\n        </tr>\\n        <tr>\\n            <td colspan="6" style="padding:0">\\n                <div id="accordion4" class="collapse"><div style="padding: 8px;">Ac\\xc3\\xa1 hay mucha informaci\\xc3\\xb3n super importante de la vida y cosas as\\xc3\\xad, como turumero y los tostones playeros.</div></div>\\n            </td>\\n        </tr>        <tr data-toggle="collapse" data-target="#accordion4" class="clickable">\\n            <td class="hColumns">15-10-2015</td>\\n            <td>Urinario sin papel toilette...</td>\\n            <td class="hColumns">En espera</td>\\n            <td class="hColumns">MyS-523A</td>\\n            <td class="hColumns"><a href="">Gallinas Voladoras</a></td>\\n            <td>\\n                <a href="www.google.com">\\n                    <img src="\', escape=False)\nresponse.write(URL(\'static\',\'images/icon_inspect.png\'))\nresponse.write(\'" width="15px" ">\\n                </a>\\n            </td>\\n        </tr>\\n        <tr>\\n            <td colspan="6" style="padding:0">\\n                <div id="accordion4" class="collapse"><div style="padding: 8px;">Ac\\xc3\\xa1 hay mucha informaci\\xc3\\xb3n super importante de la vida y cosas as\\xc3\\xad, como turumero y los tostones playeros.</div></div>\\n            </td>\\n        </tr>        <tr data-toggle="collapse" data-target="#accordion4" class="clickable">\\n            <td class="hColumns">15-10-2015</td>\\n            <td>Urinario sin papel toilette...</td>\\n            <td class="hColumns">En espera</td>\\n            <td class="hColumns">MyS-523A</td>\\n            <td class="hColumns"><a href="">Gallinas Voladoras</a></td>\\n            <td>\\n                <a href="www.google.com">\\n                    <img src="\', escape=False)\nresponse.write(URL(\'static\',\'images/icon_inspect.png\'))\nresponse.write(\'" width="15px" ">\\n                </a>\\n            </td>\\n        </tr>\\n        <tr>\\n            <td colspan="6" style="padding:0">\\n                <div id="accordion4" class="collapse"><div style="padding: 8px;">Ac\\xc3\\xa1 hay mucha informaci\\xc3\\xb3n super importante de la vida y cosas as\\xc3\\xad, como turumero y los tostones playeros.</div></div>\\n            </td>\\n        </tr>        <tr data-toggle="collapse" data-target="#accordion4" class="clickable">\\n            <td class="hColumns">15-10-2015</td>\\n            <td>Urinario sin papel toilette...</td>\\n            <td class="hColumns">En espera</td>\\n            <td class="hColumns">MyS-523A</td>\\n            <td class="hColumns"><a href="">Gallinas Voladoras</a></td>\\n            <td>\\n                <a href="www.google.com">\\n                    <img src="\', escape=False)\nresponse.write(URL(\'static\',\'images/icon_inspect.png\'))\nresponse.write(\'" width="15px" ">\\n                </a>\\n            </td>\\n        </tr>\\n        <tr>\\n            <td colspan="6" style="padding:0">\\n                <div id="accordion4" class="collapse"><div style="padding: 8px;">Ac\\xc3\\xa1 hay mucha informaci\\xc3\\xb3n super importante de la vida y cosas as\\xc3\\xad, como turumero y los tostones playeros.</div></div>\\n            </td>\\n        </tr>        <tr data-toggle="collapse" data-target="#accordion4" class="clickable">\\n            <td class="hColumns">15-10-2015</td>\\n            <td>Urinario sin papel toilette...</td>\\n            <td class="hColumns">En espera</td>\\n            <td class="hColumns">MyS-523A</td>\\n            <td class="hColumns"><a href="">Gallinas Voladoras</a></td>\\n            <td>\\n                <a href="www.google.com">\\n                    <img src="\', escape=False)\nresponse.write(URL(\'static\',\'images/icon_inspect.png\'))\nresponse.write(\'" width="15px" ">\\n                </a>\\n            </td>\\n        </tr>\\n        <tr>\\n            <td colspan="6" style="padding:0">\\n                <div id="accordion4" class="collapse"><div style="padding: 8px;">Ac\\xc3\\xa1 hay mucha informaci\\xc3\\xb3n super importante de la vida y cosas as\\xc3\\xad, como turumero y los tostones playeros.</div></div>\\n            </td>\\n        </tr>        <tr data-toggle="collapse" data-target="#accordion4" class="clickable">\\n            <td class="hColumns">15-10-2015</td>\\n            <td>Urinario sin papel toilette...</td>\\n            <td class="hColumns">En espera</td>\\n            <td class="hColumns">MyS-523A</td>\\n            <td class="hColumns"><a href="">Gallinas Voladoras</a></td>\\n            <td>\\n                <a href="www.google.com">\\n                    <img src="\', escape=False)\nresponse.write(URL(\'static\',\'images/icon_inspect.png\'))\nresponse.write(\'" width="15px" ">\\n                </a>\\n            </td>\\n        </tr>\\n        <tr>\\n            <td colspan="6" style="padding:0">\\n                <div id="accordion4" class="collapse"><div style="padding: 8px;">Ac\\xc3\\xa1 hay mucha informaci\\xc3\\xb3n super importante de la vida y cosas as\\xc3\\xad, como turumero y los tostones playeros.</div></div>\\n            </td>\\n        </tr>        <tr data-toggle="collapse" data-target="#accordion4" class="clickable">\\n            <td class="hColumns">15-10-2015</td>\\n            <td>Urinario sin papel toilette...</td>\\n            <td class="hColumns">En espera</td>\\n            <td class="hColumns">MyS-523A</td>\\n            <td class="hColumns"><a href="">Gallinas Voladoras</a></td>\\n            <td>\\n                <a href="www.google.com">\\n                    <img src="\', escape=False)\nresponse.write(URL(\'static\',\'images/icon_inspect.png\'))\nresponse.write(\'" width="15px" ">\\n                </a>\\n            </td>\\n        </tr>\\n        <tr>\\n            <td colspan="6" style="padding:0">\\n                <div id="accordion4" class="collapse"><div style="padding: 8px;">Ac\\xc3\\xa1 hay mucha informaci\\xc3\\xb3n super importante de la vida y cosas as\\xc3\\xad, como turumero y los tostones playeros.</div></div>\\n            </td>\\n        </tr>        <tr data-toggle="collapse" data-target="#accordion4" class="clickable">\\n            <td class="hColumns">15-10-2015</td>\\n            <td>Urinario sin papel toilette...</td>\\n            <td class="hColumns">En espera</td>\\n            <td class="hColumns">MyS-523A</td>\\n            <td class="hColumns"><a href="">Gallinas Voladoras</a></td>\\n            <td>\\n                <a href="www.google.com">\\n                    <img src="\', escape=False)\nresponse.write(URL(\'static\',\'images/icon_inspect.png\'))\nresponse.write(\'" width="15px" ">\\n                </a>\\n            </td>\\n        </tr>\\n        <tr>\\n            <td colspan="6" style="padding:0">\\n                <div id="accordion4" class="collapse"><div style="padding: 8px;">Ac\\xc3\\xa1 hay mucha informaci\\xc3\\xb3n super importante de la vida y cosas as\\xc3\\xad, como turumero y los tostones playeros.</div></div>\\n            </td>\\n        </tr>        <tr data-toggle="collapse" data-target="#accordion4" class="clickable">\\n            <td class="hColumns">15-10-2015</td>\\n            <td>Urinario sin papel toilette...</td>\\n            <td class="hColumns">En espera</td>\\n            <td class="hColumns">MyS-523A</td>\\n            <td class="hColumns"><a href="">Gallinas Voladoras</a></td>\\n            <td>\\n                <a href="www.google.com">\\n                    <img src="\', escape=False)\nresponse.write(URL(\'static\',\'images/icon_inspect.png\'))\nresponse.write(\'" width="15px" ">\\n                </a>\\n            </td>\\n        </tr>\\n        <tr>\\n            <td colspan="6" style="padding:0">\\n                <div id="accordion4" class="collapse"><div style="padding: 8px;">Ac\\xc3\\xa1 hay mucha informaci\\xc3\\xb3n super importante de la vida y cosas as\\xc3\\xad, como turumero y los tostones playeros.</div></div>\\n            </td>\\n        </tr>        <tr data-toggle="collapse" data-target="#accordion4" class="clickable">\\n            <td class="hColumns">15-10-2015</td>\\n            <td>Urinario sin papel toilette...</td>\\n            <td class="hColumns">En espera</td>\\n            <td class="hColumns">MyS-523A</td>\\n            <td class="hColumns"><a href="">Gallinas Voladoras</a></td>\\n            <td>\\n                <a href="www.google.com">\\n                    <img src="\', escape=False)\nresponse.write(URL(\'static\',\'images/icon_inspect.png\'))\nresponse.write(\'" width="15px" ">\\n                </a>\\n            </td>\\n        </tr>\\n        <tr>\\n            <td colspan="6" style="padding:0">\\n                <div id="accordion4" class="collapse"><div style="padding: 8px;">Ac\\xc3\\xa1 hay mucha informaci\\xc3\\xb3n super importante de la vida y cosas as\\xc3\\xad, como turumero y los tostones playeros.</div></div>\\n            </td>\\n        </tr>        <tr data-toggle="collapse" data-target="#accordion4" class="clickable">\\n            <td class="hColumns">15-10-2015</td>\\n            <td>Urinario sin papel toilette...</td>\\n            <td class="hColumns">En espera</td>\\n            <td class="hColumns">MyS-523A</td>\\n            <td class="hColumns"><a href="">Gallinas Voladoras</a></td>\\n            <td>\\n                <a href="www.google.com">\\n                    <img src="\', escape=False)\nresponse.write(URL(\'static\',\'images/icon_inspect.png\'))\nresponse.write(\'" width="15px" ">\\n                </a>\\n            </td>\\n        </tr>\\n        <tr>\\n            <td colspan="6" style="padding:0">\\n                <div id="accordion4" class="collapse"><div style="padding: 8px;">Ac\\xc3\\xa1 hay mucha informaci\\xc3\\xb3n super importante de la vida y cosas as\\xc3\\xad, como turumero y los tostones playeros.</div></div>\\n            </td>\\n        </tr>        <tr data-toggle="collapse" data-target="#accordion4" class="clickable">\\n            <td class="hColumns">15-10-2015</td>\\n            <td>Urinario sin papel toilette...</td>\\n            <td class="hColumns">En espera</td>\\n            <td class="hColumns">MyS-523A</td>\\n            <td class="hColumns"><a href="">Gallinas Voladoras</a></td>\\n            <td>\\n                <a href="www.google.com">\\n                    <img src="\', escape=False)\nresponse.write(URL(\'static\',\'images/icon_inspect.png\'))\nresponse.write(\'" width="15px" ">\\n                </a>\\n            </td>\\n        </tr>\\n        <tr>\\n            <td colspan="6" style="padding:0">\\n                <div id="accordion4" class="collapse"><div style="padding: 8px;">Ac\\xc3\\xa1 hay mucha informaci\\xc3\\xb3n super importante de la vida y cosas as\\xc3\\xad, como turumero y los tostones playeros.</div></div>\\n            </td>\\n        </tr>        <tr data-toggle="collapse" data-target="#accordion4" class="clickable">\\n            <td class="hColumns">15-10-2015</td>\\n            <td>Urinario sin papel toilette...</td>\\n            <td class="hColumns">En espera</td>\\n            <td class="hColumns">MyS-523A</td>\\n            <td class="hColumns"><a href="">Gallinas Voladoras</a></td>\\n            <td>\\n                <a href="www.google.com">\\n                    <img src="\', escape=False)\nresponse.write(URL(\'static\',\'images/icon_inspect.png\'))\nresponse.write(\'" width="15px" ">\\n                </a>\\n            </td>\\n        </tr>\\n        <tr>\\n            <td colspan="6" style="padding:0">\\n                <div id="accordion4" class="collapse"><div style="padding: 8px;">Ac\\xc3\\xa1 hay mucha informaci\\xc3\\xb3n super importante de la vida y cosas as\\xc3\\xad, como turumero y los tostones playeros.</div></div>\\n            </td>\\n        </tr>        <tr data-toggle="collapse" data-target="#accordion4" class="clickable">\\n            <td class="hColumns">15-10-2015</td>\\n            <td>Urinario sin papel toilette...</td>\\n            <td class="hColumns">En espera</td>\\n            <td class="hColumns">MyS-523A</td>\\n            <td class="hColumns"><a href="">Gallinas Voladoras</a></td>\\n            <td>\\n                <a href="www.google.com">\\n                    <img src="\', escape=False)\nresponse.write(URL(\'static\',\'images/icon_inspect.png\'))\nresponse.write(\'" width="15px" ">\\n                </a>\\n            </td>\\n        </tr>\\n        <tr>\\n            <td colspan="6" style="padding:0">\\n                <div id="accordion4" class="collapse"><div style="padding: 8px;">Ac\\xc3\\xa1 hay mucha informaci\\xc3\\xb3n super importante de la vida y cosas as\\xc3\\xad, como turumero y los tostones playeros.</div></div>\\n            </td>\\n        </tr>\\n\\n\\n\\n<!-- borrar hast aca -->\\n\\n\\n\\n    </tbody>\\n</table>\\n                                </div>\\n                            </div>\\n                        </div>\\n                        <div class="row">\\n                            <div class="rounded">\\n                                <div class="roundedwhite">\\n                                    <center>\\n                                        <h3>Solicitudes Antig\\xc3\\xbcas</h3>\\n                                        <hr WIDTH="30%">\\n                                        <p>Blablablablabla, blablabla.</p>\\n                                    </center>\\n<table class="table table-hover table-striped ">\\n    <thead>\\n        <th class="hColumns">Fecha</th>\\n        <th>Descripcion</th>\\n        <th class="hColumns">Estado</th>\\n        <th class="hColumns">Ubicaci\\xc3\\xb3n</th>\\n        <th class="hColumns">Otra Vaina</th>\\n        <th></th>\\n    </thead>\\n\\n    <tbody>\\n        <tr data-toggle="collapse" data-target="#accordion-2" class="clickable">\\n            <td class="hColumns">15-10-2015</td>\\n            <td>Urinario sin papel toilette...</td>\\n            <td class="hColumns">En espera</td>\\n            <td class="hColumns">MyS-523A</td>\\n            <td class="hColumns"><a href="">Gallinas Voladoras</a></td>\\n            <td>\\n                <a href="www.google.com">\\n                    <img src="\', escape=False)\nresponse.write(URL(\'static\',\'images/icon_inspect.png\'))\nresponse.write(\'" width="15px" ">\\n                </a>\\n            </td>\\n        </tr>\\n        <tr>\\n            <td colspan="6" style="padding:0">\\n                <div id="accordion-2" class="collapse"<div style="padding: 8px;">Ac\\xc3\\xa1 hay mucha informaci\\xc3\\xb3n super importante de la vida y cosas as\\xc3\\xad, como turumero y los tostones playeros.</div></div>\\n            </td>\\n        </tr>\\n        <tr data-toggle="collapse" data-target="#accordion2-2" class="clickable">\\n            <td class="hColumns">15-10-2015</td>\\n            <td>Urinario sin papel toilette...</td>\\n            <td class="hColumns">En espera</td>\\n            <td class="hColumns">MyS-523A</td>\\n            <td class="hColumns"><a href="">Gallinas Voladoras</a></td>\\n            <td>\\n                <a href="www.google.com">\\n                    <img src="\', escape=False)\nresponse.write(URL(\'static\',\'images/icon_inspect.png\'))\nresponse.write(\'" width="15px" ">\\n                </a>\\n            </td>\\n        </tr>\\n        <tr>\\n            <td colspan="6" style="padding:0">\\n                <div id="accordion2-2" class="collapse"><div style="padding: 8px;">Ac\\xc3\\xa1 hay mucha informaci\\xc3\\xb3n super importante de la vida y cosas as\\xc3\\xad, como turumero y los tostones playeros.</div></div>\\n            </td>\\n        </tr>\\n    </tbody>\\n</table>\\n                                </div>\\n                            </div>\\n                        </div>\\n                    </div>\\n                    <div class="col-lg-4 rounded righttext">\\n                        <div class="roundedwhite">\\n                            <h3>Notificaciones</h3>\\n                            <hr WIDTH="30%"  ALIGN="RIGHT"></hr>\\n                            <p>A continuaci\\xc3\\xb3n puede encontrar un resumen de sus \\xc3\\xbaltimos movimientos.</p>\\n                            <!--<img src="https://upload.wikimedia.org/wikipedia/commons/thumb/9/98/Truncated_Bar_Graph.svg/2000px-Truncated_Bar_Graph.svg.png" width="100%">-->\\n                        </div>\\n                    </div>\\n                </div>\\n                </div>\\n\\n        <!-- /#page-content-wrapper -->\\n\', escape=False)\nresponse.write(\'\\n        </div>\\n        <!-- /#page-content-wrapper -->\\n\\n    </div>\\n    <!-- /#wrapper -->\\n    <!-- The javascript =============================== -->\\n    <script src="\', escape=False)\nresponse.write(URL(\'static\',\'js/bootstrap.min.js\'))\nresponse.write(\'"></script>\\n    <script src="\', escape=False)\nresponse.write(URL(\'static\',\'js/web2py-bootstrap3.js\'))\nresponse.write(\'"></script>\\n\\n    <!-- jQuery -->\\n    <script src="\', escape=False)\nresponse.write(URL(\'static\',\'js/jquery.js\'))\nresponse.write(\'"></script>\\n\\n    <!-- Bootstrap Core JavaScript -->\\n    <script src="\', escape=False)\nresponse.write(URL(\'static\',\'js/bootstrap.min.js\'))\nresponse.write(\'"></script>\\n\\n    <!-- Menu Toggle Script -->\\n    <script>\\n    $("#menu-toggle").click(function(e) {\\n        e.preventDefault();\\n        $("#wrapper").toggleClass("toggled");\\n        changelogo();\\n    });\\n    </script>\\n\\n    <script>\\n    $(window).on(\\\'resize\\\', function(){\\n            changelogo();\\n    });\\n    $(document).load(function() {\\n       $(\\\'#logob\\\').width($(\\\'#sidebar-wrapper\\\').width());\\n    });\\n    </script>\\n\\n    <script>\\n    function changelogo(){\\n        var sidebarw= $(\\\'#sidebar-wrapper\\\').width();\\n        var actualw = $(\\\'#logob\\\').width();\\n        if (sidebarw >= 250) {\\n            var newsize = sidebarw*2\\n            $(\\\'#logob\\\').animate({\\n                width: newsize+\\\'px\\\'\\n            }, 200);\\n        }\\n        else {\\n            var newsize = 300\\n            $(\\\'#logob\\\').animate({\\n                width: newsize+\\\'px\\\'\\n            }, 200);\\n        };\\n        console.log(sidebarw);\\n        console.log($(\\\'#logob\\\').width());\\n        console.log(\\\'buuuu\\\');\\n    };\\n    </script>\\n\\n    \', escape=False)\nresponse.write(\'\\n    \', escape=False)\nif response.google_analytics_id:\n    response.write(\'\\n    <!-- Analytics ==================================== -->\\n    <script src="\', escape=False)\n    response.write(URL(\'static\',\'js/analytics.min.js\'))\n    response.write(\'"></script>\\n    <script type="text/javascript">\\n      analytics.initialize({\\n      \\\'Google Analytics\\\':{trackingId:\\\'\', escape=False)\n    response.write(response.google_analytics_id)\n    response.write("\'}\\n      });\\n    </script>\\n\\n</body>\\n\\n</html>\\n", escape=False)'
p7
sS'snapshot'
p8
(dp9
S'exception'
p10
(dp11
S'__module__'
p12
S"'gluon.rocket'"
p13
sS'__getslice__'
p14
S"<method-wrapper '__getslice__' of SocketTimeout object>"
p15
sS'__str__'
p16
S"<method-wrapper '__str__' of SocketTimeout object>"
p17
sS'__reduce__'
p18
S'<built-in method __reduce__ of SocketTimeout object>'
p19
sS'__dict__'
p20
S'{}'
p21
sS'__sizeof__'
p22
S'<built-in method __sizeof__ of SocketTimeout object>'
p23
sS'__weakref__'
p24
S'None'
p25
sS'__init__'
p26
S"<method-wrapper '__init__' of SocketTimeout object>"
p27
sS'__setattr__'
p28
S"<method-wrapper '__setattr__' of SocketTimeout object>"
p29
sS'__reduce_ex__'
p30
S'<built-in method __reduce_ex__ of SocketTimeout object>'
p31
sS'__new__'
p32
S'<built-in method __new__ of type object>'
p33
sS'__format__'
p34
S'<built-in method __format__ of SocketTimeout object>'
p35
sS'__class__'
p36
S"<class 'gluon.rocket.SocketTimeout'>"
p37
sS'__doc__'
p38
S"'Exception for when a socket times out between requests.'"
p39
sS'__getitem__'
p40
S"<method-wrapper '__getitem__' of SocketTimeout object>"
p41
sS'__setstate__'
p42
S'<built-in method __setstate__ of SocketTimeout object>'
p43
sS'__getattribute__'
p44
S"<method-wrapper '__getattribute__' of SocketTimeout object>"
p45
sS'args'
p46
S"('Socket timed out before request.',)"
p47
sS'__subclasshook__'
p48
S'<built-in method __subclasshook__ of type object>'
p49
sS'__unicode__'
p50
S'<built-in method __unicode__ of SocketTimeout object>'
p51
sS'__delattr__'
p52
S"<method-wrapper '__delattr__' of SocketTimeout object>"
p53
sS'__repr__'
p54
S"<method-wrapper '__repr__' of SocketTimeout object>"
p55
sS'__hash__'
p56
S"<method-wrapper '__hash__' of SocketTimeout object>"
p57
ssS'evalue'
p58
S'Socket timed out before request.'
p59
sS'frames'
p60
(lp61
(dp62
S'file'
p63
S'C:\\Users\\nabil\\Documents\\Nabil\\UNI USB\\5to A\xf1o\\13vo Trimestre\\Sistemas\\web2py\\gluon\\rocket.py'
p64
sS'dump'
p65
(dp66
S'self'
p67
S'<WSGIWorker(Thread-125, started daemon 9028)>'
p68
sS'conn'
p69
S'<gluon.rocket.Connection object>'
p70
sS'self.run_app'
p71
S'<bound method WSGIWorker.run_app of <WSGIWorker(Thread-125, started daemon 9028)>>'
p72
ssS'lnum'
p73
I1337
sS'lines'
p74
(dp75
I1332
S'            # Enter connection serve loop'
p76
sI1333
S'            while True:'
p77
sI1334
S'                if __debug__:'
p78
sI1335
S"                    self.err_log.debug('Serving a request')"
p79
sI1336
S'                try:'
p80
sI1337
S'                    self.run_app(conn)'
p81
sI1338
S'                except:'
p82
sI1339
S'                    exc = sys.exc_info()'
p83
sI1340
S'                    handled = self._handleError(*exc)'
p84
sI1341
S'                    if handled:'
p85
ssS'call'
p86
S'(self=<WSGIWorker(Thread-125, started daemon 9028)>)'
p87
sS'func'
p88
S'run'
p89
sa(dp90
g63
S'C:\\Users\\nabil\\Documents\\Nabil\\UNI USB\\5to A\xf1o\\13vo Trimestre\\Sistemas\\web2py\\gluon\\rocket.py'
p91
sg65
(dp92
S'self'
p93
S'<WSGIWorker(Thread-125, started daemon 9028)>'
p94
sS'self.environ'
p95
S"{'HTTP_ACCEPT': 'text/html,application/xhtml+xml,application/xml;q=0.9,image/webp,*/*;q=0.8', 'HTTP_ACCEPT_ENCODING': 'gzip, deflate, sdch', 'HTTP_ACCEPT_LANGUAGE': 'en-US,en;q=0.8,es-419;q=0.6,es;q=0.4', 'HTTP_CACHE_CONTROL': 'max-age=0', 'HTTP_CONNECTION': 'keep-alive', 'HTTP_COOKIE': 'session_id_admin=127.0.0.1-95f48048-5ba3-4eef-8c...pp=127.0.0.1-3a51fb32-56d8-4886-be37-ce16b57b771a', 'HTTP_HOST': '127.0.0.1:8005', 'HTTP_REFERER': 'http://127.0.0.1:8005/uaiapp/default/sb', 'HTTP_UPGRADE_INSECURE_REQUESTS': '1', 'HTTP_USER_AGENT': 'Mozilla/5.0 (Windows NT 10.0; WOW64) AppleWebKit...L, like Gecko) Chrome/48.0.2564.109 Safari/537.36', ...}"
p96
sS'sock_file'
p97
S'<socket._fileobject object>'
p98
sS'environ'
p99
S'undefined'
p100
sS'self.build_environ'
p101
S'<bound method WSGIWorker.build_environ of <WSGIWorker(Thread-125, started daemon 9028)>>'
p102
sS'conn'
p103
S'<gluon.rocket.Connection object>'
p104
ssg73
I1830
sg74
(dp105
I1825
S'        else:'
p106
sI1826
S'            sock_file = conn.makefile(BUF_SIZE)'
p107
sI1827
S''
sI1828
S'        try:'
p108
sI1829
S'            # Read the headers and build our WSGI environment'
p109
sI1830
S'            self.environ = environ = self.build_environ(sock_file, conn)'
p110
sI1831
S''
sI1832
S'            # Handle 100 Continue'
p111
sI1833
S"            if environ.get('HTTP_EXPECT', '') == '100-continue':"
p112
sI1834
S"                res = environ['SERVER_PROTOCOL'] + ' 100 Continue\\r\\n\\r\\n'"
p113
ssg86
S'(self=<WSGIWorker(Thread-125, started daemon 9028)>, conn=<gluon.rocket.Connection object>)'
p114
sg88
S'run_app'
p115
sa(dp116
g63
S'C:\\Users\\nabil\\Documents\\Nabil\\UNI USB\\5to A\xf1o\\13vo Trimestre\\Sistemas\\web2py\\gluon\\rocket.py'
p117
sg65
(dp118
S'sock_file'
p119
S'<socket._fileobject object>'
p120
sS'self.read_request_line'
p121
S'<bound method WSGIWorker.read_request_line of <WSGIWorker(Thread-125, started daemon 9028)>>'
p122
sS'self'
p123
S'<WSGIWorker(Thread-125, started daemon 9028)>'
p124
sS'request'
p125
g100
ssg73
I1650
sg74
(dp126
I1645
S'                                      "wsgiorg.futures": executor.futures})'
p127
sI1646
S''
sI1647
S'    def build_environ(self, sock_file, conn):'
p128
sI1648
S'        """ Build the execution environment. """'
p129
sI1649
S'        # Grab the request line'
p130
sI1650
S'        request = self.read_request_line(sock_file)'
p131
sI1651
S''
sI1652
S'        # Copy the Base Environment'
p132
sI1653
S'        environ = self.base_environ.copy()'
p133
sI1654
S''
ssg86
S'(self=<WSGIWorker(Thread-125, started daemon 9028)>, sock_file=<socket._fileobject object>, conn=<gluon.rocket.Connection object>)'
p134
sg88
S'build_environ'
p135
sa(dp136
g63
S'C:\\Users\\nabil\\Documents\\Nabil\\UNI USB\\5to A\xf1o\\13vo Trimestre\\Sistemas\\web2py\\gluon\\rocket.py'
p137
sg65
(dp138
S'global SocketTimeout'
p139
S"<class 'gluon.rocket.SocketTimeout'>"
p140
ssg73
I1401
sg74
(dp141
I1396
S''
sI1397
S'                d = sock_file.readline()'
p142
sI1398
S'                if PY3K:'
p143
sI1399
S"                    d = d.decode('ISO-8859-1')"
p144
sI1400
S'        except socket.timeout:'
p145
sI1401
S"            raise SocketTimeout('Socket timed out before request.')"
p146
sI1402
S'        except TypeError:'
p147
sI1403
S'            raise SocketClosed('
p148
sI1404
S"                'SSL bug caused closure of socket.  See '"
p149
sI1405
S'                \'"https://groups.google.com/d/topic/web2py/P_Gw0JxWzCs".\')'
p150
ssg86
S'(self=<WSGIWorker(Thread-125, started daemon 9028)>, sock_file=<socket._fileobject object>)'
p151
sg88
S'read_request_line'
p152
sasS'pyver'
p153
S'Python 2.7.9: C:\\Users\\nabil\\Documents\\Nabil\\UNI USB\\5to A\xf1o\\13vo Trimestre\\Sistemas\\web2py\\web2py.exe (prefix: C:\\Python27)'
p154
sS'etype'
p155
S"<class 'gluon.rocket.SocketTimeout'>"
p156
sS'date'
p157
S'Sun Feb 14 16:08:56 2016'
p158
sS'locals'
p159
(dp160
S'sock_file'
p161
S'<socket._fileobject object>'
p162
sS'self'
p163
S'<WSGIWorker(Thread-125, started daemon 9028)>'
p164
sssS'traceback'
p165
S'Traceback (most recent call last):\n  File "C:\\Users\\nabil\\Documents\\Nabil\\UNI USB\\5to A\xf1o\\13vo Trimestre\\Sistemas\\web2py\\gluon\\rocket.py", line 1337, in run\n    self.run_app(conn)\n  File "C:\\Users\\nabil\\Documents\\Nabil\\UNI USB\\5to A\xf1o\\13vo Trimestre\\Sistemas\\web2py\\gluon\\rocket.py", line 1830, in run_app\n    self.environ = environ = self.build_environ(sock_file, conn)\n  File "C:\\Users\\nabil\\Documents\\Nabil\\UNI USB\\5to A\xf1o\\13vo Trimestre\\Sistemas\\web2py\\gluon\\rocket.py", line 1650, in build_environ\n    request = self.read_request_line(sock_file)\n  File "C:\\Users\\nabil\\Documents\\Nabil\\UNI USB\\5to A\xf1o\\13vo Trimestre\\Sistemas\\web2py\\gluon\\rocket.py", line 1401, in read_request_line\n    raise SocketTimeout(\'Socket timed out before request.\')\nSocketTimeout: Socket timed out before request.\n'
p166
s.