(dp1
S'output'
p2
S'missing "pass" in view'
p3
sS'layer'
p4
S'ParserContainer'
p5
sS'code'
p6
S'response.write(\'<!DOCTYPE html>\\n<!--[if (gt IE 9)|!(IE)]><!-->\\n<html class="no-js" lang="\', escape=False)\nresponse.write(T.accepted_language or \'en\')\nresponse.write(\'"> <!--<![endif]-->\\n  <head>\\n    <meta charset="utf-8">\\n    <!-- www.phpied.com/conditional-comments-block-downloads/ -->\\n    <!-- Always force latest IE rendering engine\\n         (even in intranet) & Chrome Frame\\n         Remove this if you use the .htaccess -->\\n    <meta http-equiv="X-UA-Compatible" content="IE=edge\', escape=False)\nresponse.write(not request.is_local and \',chrome=1\' or \'\')\nresponse.write(\'">\\n    <!--  Mobile Viewport Fix\\n          j.mp/mobileviewport & davidbcalhoun.com/2010/viewport-metatag\\n          device-width: Occupy full width of the screen in its current orientation\\n          initial-scale = 1.0 retains dimensions instead of zooming out if page height > device height\\n          user-scalable = yes allows the user to zoom in -->\\n    <meta name="viewport" content="width=device-width, initial-scale=1.0">\\n    <title>\', escape=False)\nresponse.write(response.title or request.application)\nresponse.write(\'</title>\\n    <!-- http://dev.w3.org/html5/markup/meta.name.html -->\\n    <meta name="application-name" content="\', escape=False)\nresponse.write(request.application)\nresponse.write(\'">\\n    <!-- Speaking of Google, don\\\'t forget to set your site up:\\n         http://google.com/webmasters -->\\n    <meta name="google-site-verification" content="">\\n\\n    <!-- Bootstrap Core CSS -->\\n    <link href="\', escape=False)\nresponse.write(URL(\'static\',\'css/bootstrap.min.css\'))\nresponse.write(\'" rel="stylesheet">\\n\\n    <!-- Custom CSS -->\\n    <link href="\', escape=False)\nresponse.write(URL(\'static\',\'css/simple-sidebar.css\'))\nresponse.write(\'" rel="stylesheet">\\n    <link href="\', escape=False)\nresponse.write(URL(\'static\',\'css/requestTable.css\'))\nresponse.write(\'" rel="stylesheet">\\n\\n    <!-- HTML5 Shim and Respond.js IE8 support of HTML5 elements and media queries -->\\n    <!-- WARNING: Respond.js doesn\\\'t work if you view the page via file:// -->\\n    <!--[if lt IE 9]>\\n        <script src="https://oss.maxcdn.com/libs/html5shiv/3.7.0/html5shiv.js"></script>\\n        <script src="https://oss.maxcdn.com/libs/respond.js/1.4.2/respond.min.js"></script>\\n    <![endif]-->\\n    <!-- Favicons -->\\n    \', escape=False)\nresponse.write(\'<script type="text/javascript"><!--\\n    // These variables are used by the web2py_ajax_init function in web2py_ajax.js (which is loaded below).\\n    var w2p_ajax_confirm_message = "\', escape=False)\nresponse.write(T(\'Are you sure you want to delete this object?\'))\nresponse.write(\'";\\n    var w2p_ajax_disable_with_message = "\', escape=False)\nresponse.write(T(\'Working...\'))\nresponse.write(\'";\\n    var w2p_ajax_date_format = "\', escape=False)\nresponse.write(T(\'%Y-%m-%d\'))\nresponse.write(\'";\\n    var w2p_ajax_datetime_format = "\', escape=False)\nresponse.write(T(\'%Y-%m-%d %H:%M:%S\'))\nresponse.write(\'";\\n    var ajax_error_500 = \\\'\', escape=False)\nresponse.write(T.M(\'An error occured, please [[reload %s]] the page\') % URL(args=request.args, vars=request.get_vars))\nresponse.write("\'\\n    //--></script>\\n", escape=False)\nresponse.files.insert(0,URL(\'static\',\'js/jquery.js\'))\nresponse.files.insert(1,URL(\'static\',\'css/calendar.css\'))\nresponse.files.insert(2,URL(\'static\',\'js/calendar.js\'))\nresponse.files.insert(3,URL(\'static\',\'js/web2py.js\'))\nresponse.include_meta()\nresponse.include_files()\nresponse.write(\'\\n\', escape=False)\nresponse.write(\' <!-- this includes jquery.js, calendar.js/.css and web2py.js -->\\n    \', escape=False)\nresponse.write(\'\\n</head>\\n\\n<body>\\n\\n    <div class="jumbotron" id="Header">\\n\\n        <img src="\', escape=False)\nresponse.write(URL(\'static\',\'images/logob.png\'))\nresponse.write(\'" id="logob" >\\n        <img src="\', escape=False)\nresponse.write(URL(\'static\',\'images/logo.png\'))\nresponse.write(\'" id="logo" height="90%">\\n    </div>\\n\\n    <div id="wrapper">\\n        <!-- Sidebar -->\\n        <div id="sidebar-wrapper">\\n          \', escape=False)\nif response.menu:\n    response.write(\'\\n          \', escape=False)\n    response.write(MENU(response.menu, _class=\'sidebar-nav\',li_class=\'sidebar-brand\',ul_class=\'sidebar-nav\'))\n    response.write(\'\\n          \', escape=False)\n    pass\nresponse.write(\'\\n        </div>\\n        <div id="page-content-wrapper">\\n            \', escape=False)\nresponse.write(\'\\n\\n        <!-- Page Content -->\\n          <ul class="nav navbar-nav navbar-right">\\n            \', escape=False)\nresponse.write(\'auth\' in globals() and auth.navbar(\'Welcome\',mode=\'dropdown\') or \'\')\nresponse.write(\'\\n          </ul>\\n            <div class="container-fluid">\\n                <div class="row">\\n                    <div class="col-lg-12">\\n                        <center>\\n                            <h1>Bienvenido, Usuario.</h1>\\n                            <p>A continuaci\\xc3\\xb3n puede encontrar un resumen de sus \\xc3\\xbaltimos movimientos. </p>\\n                            <code><a href="#menu-toggle" class="" id="menu-toggle">Para ocultar clic aqu\\xc3\\xad</a></code>\\n                            </br>\\n                        </center>\\n                    </div>\\n                </div>\\n                <div class="row">\\n                    <div class="col-lg-8">\\n                        <div class="row">\\n                            <div class="rounded">\\n                                <div class="roundedwhite">\\n                                    <center>\\n                                        <h3>Solicitudes Recientes</h3>\\n                                        <hr WIDTH="30%">\\n                                        <p>De hace una semana o menos tiempo.</p>\\n                                    </center>\\n\\n<table class="table table-hover table-striped ">\\n    <thead>\\n        <th class="hColumns">Fecha</th>\\n        <th>Descripcion</th>\\n        <th class="hColumns">Estado</th>\\n        <th class="hColumns">Ubicaci\\xc3\\xb3n</th>\\n        <th class="hColumns">Otra Vaina</th>\\n        <th></th>\\n    </thead>\\n\\n    <tbody>\\n        <tr data-toggle="collapse" data-target="#accordion" class="clickable">\\n            <td class="hColumns">15-10-2015</td>\\n            <td>Urinario sin papel toilette...</td>\\n            <td class="hColumns">En espera</td>\\n            <td class="hColumns">MyS-523A</td>\\n            <td class="hColumns"><a href="">Gallinas Voladoras</a></td>\\n            <td>\\n                <a href="www.google.com">\\n                    <img src="\', escape=False)\nresponse.write(URL(\'static\',\'images/icon_inspect.png\'))\nresponse.write(\'" width="15px" ">\\n                </a>\\n            </td>\\n        </tr>\\n        <tr>\\n            <td colspan="6" style="padding:0">\\n                <div id="accordion" class="collapse"<div style="padding: 8px;">Ac\\xc3\\xa1 hay mucha informaci\\xc3\\xb3n super importante de la vida y cosas as\\xc3\\xad, como turumero y los tostones playeros.</div></div>\\n            </td>\\n        </tr>\\n        <tr data-toggle="collapse" data-target="#accordion2" class="clickable">\\n            <td class="hColumns">15-10-2015</td>\\n            <td>Urinario sin papel toilette...</td>\\n            <td class="hColumns">En espera</td>\\n            <td class="hColumns">MyS-523A</td>\\n            <td class="hColumns"><a href="">Gallinas Voladoras</a></td>\\n            <td>\\n                <a href="www.google.com">\\n                    <img src="\', escape=False)\nresponse.write(URL(\'static\',\'images/icon_inspect.png\'))\nresponse.write(\'" width="15px" ">\\n                </a>\\n            </td>\\n        </tr>\\n        <tr>\\n            <td colspan="6" style="padding:0">\\n                <div id="accordion2" class="collapse"><div style="padding: 8px;">Ac\\xc3\\xa1 hay mucha informaci\\xc3\\xb3n super importante de la vida y cosas as\\xc3\\xad, como turumero y los tostones playeros.</div></div>\\n            </td>\\n        </tr>\\n        <tr data-toggle="collapse" data-target="#accordion3" class="clickable">\\n            <td class="hColumns">15-10-2015</td>\\n            <td>Urinario sin papel toilette...</td>\\n            <td class="hColumns">En espera</td>\\n            <td class="hColumns">MyS-523A</td>\\n            <td class="hColumns">\\n                <a href="">Gallinas Voladoras</a></td>\\n            <td>\\n                <a href="www.google.com">\\n                    <img src="\', escape=False)\nresponse.write(URL(\'static\',\'images/icon_inspect.png\'))\nresponse.write(\'" width="15px" ">\\n                </a>\\n            </td>\\n        </tr>\\n        <tr>\\n            <td colspan="6" style="padding:0">\\n                <div id="accordion3" class="collapse"<div style="padding: 8px;">Ac\\xc3\\xa1 hay mucha informaci\\xc3\\xb3n super importante de la vida y cosas as\\xc3\\xad, como turumero y los tostones playeros.</div></div>\\n            </td>\\n        </tr>\\n        <tr data-toggle="collapse" data-target="#accordion4" class="clickable">\\n            <td class="hColumns">15-10-2015</td>\\n            <td>Urinario sin papel toilette...</td>\\n            <td class="hColumns">En espera</td>\\n            <td class="hColumns">MyS-523A</td>\\n            <td class="hColumns"><a href="">Gallinas Voladoras</a></td>\\n            <td>\\n                <a href="www.google.com">\\n                    <img src="\', escape=False)\nresponse.write(URL(\'static\',\'images/icon_inspect.png\'))\nresponse.write(\'" width="15px" ">\\n                </a>\\n            </td>\\n        </tr>\\n        <tr>\\n            <td colspan="6" style="padding:0">\\n                <div id="accordion4" class="collapse"><div style="padding: 8px;">Ac\\xc3\\xa1 hay mucha informaci\\xc3\\xb3n super importante de la vida y cosas as\\xc3\\xad, como turumero y los tostones playeros.</div></div>\\n            </td>\\n        </tr>\\n        <tr data-toggle="collapse" data-target="#accordion5" class="clickable">\\n            <td class="hColumns">15-10-2015</td>\\n            <td>Urinario sin papel toilette...</td>\\n            <td class="hColumns">En espera</td>\\n            <td class="hColumns">MyS-523A</td>\\n            <td class="hColumns"><a href="">Gallinas Voladoras</a></td>\\n            <td>\\n                <a href="www.google.com">\\n                    <img src="\', escape=False)\nresponse.write(URL(\'static\',\'images/icon_inspect.png\'))\nresponse.write(\'" width="15px" ">\\n                </a>\\n            </td>\\n        </tr>\\n        <tr>\\n            <td colspan="6" style="padding:0">\\n                <div id="accordion5" class="collapse"><div style="padding: 8px;">Ac\\xc3\\xa1 hay mucha informaci\\xc3\\xb3n super importante de la vida y cosas as\\xc3\\xad, como turumero y los tostones playeros.</div></div>\\n            </td>\\n        </tr>\\n        <tr data-toggle="collapse" data-target="#accordion6" class="clickable">\\n            <td class="hColumns">15-10-2015</td>\\n            <td>Urinario sin papel toilette...</td>\\n            <td class="hColumns">En espera</td>\\n            <td class="hColumns">MyS-523A</td>\\n            <td class="hColumns"><a href="">Gallinas Voladoras</a></td>\\n            <td>\\n                <a href="www.google.com">\\n                    <img src="\', escape=False)\nresponse.write(URL(\'static\',\'images/icon_inspect.png\'))\nresponse.write(\'" width="15px" ">\\n                </a>\\n            </td>\\n        </tr>\\n        <tr>\\n            <td colspan="6" style="padding:0">\\n                <div id="accordion6" class="collapse"><div style="padding: 8px;">Ac\\xc3\\xa1 hay mucha informaci\\xc3\\xb3n super importante de la vida y cosas as\\xc3\\xad, como turumero y los tostones playeros.</div></div>\\n            </td>\\n        </tr>\\n\\n\\n\\n<!-- borrar desde aca -->\\n\\n\\n\\n\\n\\n        <tr data-toggle="collapse" data-target="#accordion4" class="clickable">\\n            <td class="hColumns">15-10-2015</td>\\n            <td>Urinario sin papel toilette...</td>\\n            <td class="hColumns">En espera</td>\\n            <td class="hColumns">MyS-523A</td>\\n            <td class="hColumns"><a href="">Gallinas Voladoras</a></td>\\n            <td>\\n                <a href="www.google.com">\\n                    <img src="\', escape=False)\nresponse.write(URL(\'static\',\'images/icon_inspect.png\'))\nresponse.write(\'" width="15px" ">\\n                </a>\\n            </td>\\n        </tr>\\n        <tr>\\n            <td colspan="6" style="padding:0">\\n                <div id="accordion4" class="collapse"><div style="padding: 8px;">Ac\\xc3\\xa1 hay mucha informaci\\xc3\\xb3n super importante de la vida y cosas as\\xc3\\xad, como turumero y los tostones playeros.</div></div>\\n            </td>\\n        </tr>        <tr data-toggle="collapse" data-target="#accordion4" class="clickable">\\n            <td class="hColumns">15-10-2015</td>\\n            <td>Urinario sin papel toilette...</td>\\n            <td class="hColumns">En espera</td>\\n            <td class="hColumns">MyS-523A</td>\\n            <td class="hColumns"><a href="">Gallinas Voladoras</a></td>\\n            <td>\\n                <a href="www.google.com">\\n                    <img src="\', escape=False)\nresponse.write(URL(\'static\',\'images/icon_inspect.png\'))\nresponse.write(\'" width="15px" ">\\n                </a>\\n            </td>\\n        </tr>\\n        <tr>\\n            <td colspan="6" style="padding:0">\\n                <div id="accordion4" class="collapse"><div style="padding: 8px;">Ac\\xc3\\xa1 hay mucha informaci\\xc3\\xb3n super importante de la vida y cosas as\\xc3\\xad, como turumero y los tostones playeros.</div></div>\\n            </td>\\n        </tr>        <tr data-toggle="collapse" data-target="#accordion4" class="clickable">\\n            <td class="hColumns">15-10-2015</td>\\n            <td>Urinario sin papel toilette...</td>\\n            <td class="hColumns">En espera</td>\\n            <td class="hColumns">MyS-523A</td>\\n            <td class="hColumns"><a href="">Gallinas Voladoras</a></td>\\n            <td>\\n                <a href="www.google.com">\\n                    <img src="\', escape=False)\nresponse.write(URL(\'static\',\'images/icon_inspect.png\'))\nresponse.write(\'" width="15px" ">\\n                </a>\\n            </td>\\n        </tr>\\n        <tr>\\n            <td colspan="6" style="padding:0">\\n                <div id="accordion4" class="collapse"><div style="padding: 8px;">Ac\\xc3\\xa1 hay mucha informaci\\xc3\\xb3n super importante de la vida y cosas as\\xc3\\xad, como turumero y los tostones playeros.</div></div>\\n            </td>\\n        </tr>        <tr data-toggle="collapse" data-target="#accordion4" class="clickable">\\n            <td class="hColumns">15-10-2015</td>\\n            <td>Urinario sin papel toilette...</td>\\n            <td class="hColumns">En espera</td>\\n            <td class="hColumns">MyS-523A</td>\\n            <td class="hColumns"><a href="">Gallinas Voladoras</a></td>\\n            <td>\\n                <a href="www.google.com">\\n                    <img src="\', escape=False)\nresponse.write(URL(\'static\',\'images/icon_inspect.png\'))\nresponse.write(\'" width="15px" ">\\n                </a>\\n            </td>\\n        </tr>\\n        <tr>\\n            <td colspan="6" style="padding:0">\\n                <div id="accordion4" class="collapse"><div style="padding: 8px;">Ac\\xc3\\xa1 hay mucha informaci\\xc3\\xb3n super importante de la vida y cosas as\\xc3\\xad, como turumero y los tostones playeros.</div></div>\\n            </td>\\n        </tr>        <tr data-toggle="collapse" data-target="#accordion4" class="clickable">\\n            <td class="hColumns">15-10-2015</td>\\n            <td>Urinario sin papel toilette...</td>\\n            <td class="hColumns">En espera</td>\\n            <td class="hColumns">MyS-523A</td>\\n            <td class="hColumns"><a href="">Gallinas Voladoras</a></td>\\n            <td>\\n                <a href="www.google.com">\\n                    <img src="\', escape=False)\nresponse.write(URL(\'static\',\'images/icon_inspect.png\'))\nresponse.write(\'" width="15px" ">\\n                </a>\\n            </td>\\n        </tr>\\n        <tr>\\n            <td colspan="6" style="padding:0">\\n                <div id="accordion4" class="collapse"><div style="padding: 8px;">Ac\\xc3\\xa1 hay mucha informaci\\xc3\\xb3n super importante de la vida y cosas as\\xc3\\xad, como turumero y los tostones playeros.</div></div>\\n            </td>\\n        </tr>        <tr data-toggle="collapse" data-target="#accordion4" class="clickable">\\n            <td class="hColumns">15-10-2015</td>\\n            <td>Urinario sin papel toilette...</td>\\n            <td class="hColumns">En espera</td>\\n            <td class="hColumns">MyS-523A</td>\\n            <td class="hColumns"><a href="">Gallinas Voladoras</a></td>\\n            <td>\\n                <a href="www.google.com">\\n                    <img src="\', escape=False)\nresponse.write(URL(\'static\',\'images/icon_inspect.png\'))\nresponse.write(\'" width="15px" ">\\n                </a>\\n            </td>\\n        </tr>\\n        <tr>\\n            <td colspan="6" style="padding:0">\\n                <div id="accordion4" class="collapse"><div style="padding: 8px;">Ac\\xc3\\xa1 hay mucha informaci\\xc3\\xb3n super importante de la vida y cosas as\\xc3\\xad, como turumero y los tostones playeros.</div></div>\\n            </td>\\n        </tr>        <tr data-toggle="collapse" data-target="#accordion4" class="clickable">\\n            <td class="hColumns">15-10-2015</td>\\n            <td>Urinario sin papel toilette...</td>\\n            <td class="hColumns">En espera</td>\\n            <td class="hColumns">MyS-523A</td>\\n            <td class="hColumns"><a href="">Gallinas Voladoras</a></td>\\n            <td>\\n                <a href="www.google.com">\\n                    <img src="\', escape=False)\nresponse.write(URL(\'static\',\'images/icon_inspect.png\'))\nresponse.write(\'" width="15px" ">\\n                </a>\\n            </td>\\n        </tr>\\n        <tr>\\n            <td colspan="6" style="padding:0">\\n                <div id="accordion4" class="collapse"><div style="padding: 8px;">Ac\\xc3\\xa1 hay mucha informaci\\xc3\\xb3n super importante de la vida y cosas as\\xc3\\xad, como turumero y los tostones playeros.</div></div>\\n            </td>\\n        </tr>        <tr data-toggle="collapse" data-target="#accordion4" class="clickable">\\n            <td class="hColumns">15-10-2015</td>\\n            <td>Urinario sin papel toilette...</td>\\n            <td class="hColumns">En espera</td>\\n            <td class="hColumns">MyS-523A</td>\\n            <td class="hColumns"><a href="">Gallinas Voladoras</a></td>\\n            <td>\\n                <a href="www.google.com">\\n                    <img src="\', escape=False)\nresponse.write(URL(\'static\',\'images/icon_inspect.png\'))\nresponse.write(\'" width="15px" ">\\n                </a>\\n            </td>\\n        </tr>\\n        <tr>\\n            <td colspan="6" style="padding:0">\\n                <div id="accordion4" class="collapse"><div style="padding: 8px;">Ac\\xc3\\xa1 hay mucha informaci\\xc3\\xb3n super importante de la vida y cosas as\\xc3\\xad, como turumero y los tostones playeros.</div></div>\\n            </td>\\n        </tr>        <tr data-toggle="collapse" data-target="#accordion4" class="clickable">\\n            <td class="hColumns">15-10-2015</td>\\n            <td>Urinario sin papel toilette...</td>\\n            <td class="hColumns">En espera</td>\\n            <td class="hColumns">MyS-523A</td>\\n            <td class="hColumns"><a href="">Gallinas Voladoras</a></td>\\n            <td>\\n                <a href="www.google.com">\\n                    <img src="\', escape=False)\nresponse.write(URL(\'static\',\'images/icon_inspect.png\'))\nresponse.write(\'" width="15px" ">\\n                </a>\\n            </td>\\n        </tr>\\n        <tr>\\n            <td colspan="6" style="padding:0">\\n                <div id="accordion4" class="collapse"><div style="padding: 8px;">Ac\\xc3\\xa1 hay mucha informaci\\xc3\\xb3n super importante de la vida y cosas as\\xc3\\xad, como turumero y los tostones playeros.</div></div>\\n            </td>\\n        </tr>        <tr data-toggle="collapse" data-target="#accordion4" class="clickable">\\n            <td class="hColumns">15-10-2015</td>\\n            <td>Urinario sin papel toilette...</td>\\n            <td class="hColumns">En espera</td>\\n            <td class="hColumns">MyS-523A</td>\\n            <td class="hColumns"><a href="">Gallinas Voladoras</a></td>\\n            <td>\\n                <a href="www.google.com">\\n                    <img src="\', escape=False)\nresponse.write(URL(\'static\',\'images/icon_inspect.png\'))\nresponse.write(\'" width="15px" ">\\n                </a>\\n            </td>\\n        </tr>\\n        <tr>\\n            <td colspan="6" style="padding:0">\\n                <div id="accordion4" class="collapse"><div style="padding: 8px;">Ac\\xc3\\xa1 hay mucha informaci\\xc3\\xb3n super importante de la vida y cosas as\\xc3\\xad, como turumero y los tostones playeros.</div></div>\\n            </td>\\n        </tr>        <tr data-toggle="collapse" data-target="#accordion4" class="clickable">\\n            <td class="hColumns">15-10-2015</td>\\n            <td>Urinario sin papel toilette...</td>\\n            <td class="hColumns">En espera</td>\\n            <td class="hColumns">MyS-523A</td>\\n            <td class="hColumns"><a href="">Gallinas Voladoras</a></td>\\n            <td>\\n                <a href="www.google.com">\\n                    <img src="\', escape=False)\nresponse.write(URL(\'static\',\'images/icon_inspect.png\'))\nresponse.write(\'" width="15px" ">\\n                </a>\\n            </td>\\n        </tr>\\n        <tr>\\n            <td colspan="6" style="padding:0">\\n                <div id="accordion4" class="collapse"><div style="padding: 8px;">Ac\\xc3\\xa1 hay mucha informaci\\xc3\\xb3n super importante de la vida y cosas as\\xc3\\xad, como turumero y los tostones playeros.</div></div>\\n            </td>\\n        </tr>        <tr data-toggle="collapse" data-target="#accordion4" class="clickable">\\n            <td class="hColumns">15-10-2015</td>\\n            <td>Urinario sin papel toilette...</td>\\n            <td class="hColumns">En espera</td>\\n            <td class="hColumns">MyS-523A</td>\\n            <td class="hColumns"><a href="">Gallinas Voladoras</a></td>\\n            <td>\\n                <a href="www.google.com">\\n                    <img src="\', escape=False)\nresponse.write(URL(\'static\',\'images/icon_inspect.png\'))\nresponse.write(\'" width="15px" ">\\n                </a>\\n            </td>\\n        </tr>\\n        <tr>\\n            <td colspan="6" style="padding:0">\\n                <div id="accordion4" class="collapse"><div style="padding: 8px;">Ac\\xc3\\xa1 hay mucha informaci\\xc3\\xb3n super importante de la vida y cosas as\\xc3\\xad, como turumero y los tostones playeros.</div></div>\\n            </td>\\n        </tr>        <tr data-toggle="collapse" data-target="#accordion4" class="clickable">\\n            <td class="hColumns">15-10-2015</td>\\n            <td>Urinario sin papel toilette...</td>\\n            <td class="hColumns">En espera</td>\\n            <td class="hColumns">MyS-523A</td>\\n            <td class="hColumns"><a href="">Gallinas Voladoras</a></td>\\n            <td>\\n                <a href="www.google.com">\\n                    <img src="\', escape=False)\nresponse.write(URL(\'static\',\'images/icon_inspect.png\'))\nresponse.write(\'" width="15px" ">\\n                </a>\\n            </td>\\n        </tr>\\n        <tr>\\n            <td colspan="6" style="padding:0">\\n                <div id="accordion4" class="collapse"><div style="padding: 8px;">Ac\\xc3\\xa1 hay mucha informaci\\xc3\\xb3n super importante de la vida y cosas as\\xc3\\xad, como turumero y los tostones playeros.</div></div>\\n            </td>\\n        </tr>        <tr data-toggle="collapse" data-target="#accordion4" class="clickable">\\n            <td class="hColumns">15-10-2015</td>\\n            <td>Urinario sin papel toilette...</td>\\n            <td class="hColumns">En espera</td>\\n            <td class="hColumns">MyS-523A</td>\\n            <td class="hColumns"><a href="">Gallinas Voladoras</a></td>\\n            <td>\\n                <a href="www.google.com">\\n                    <img src="\', escape=False)\nresponse.write(URL(\'static\',\'images/icon_inspect.png\'))\nresponse.write(\'" width="15px" ">\\n                </a>\\n            </td>\\n        </tr>\\n        <tr>\\n            <td colspan="6" style="padding:0">\\n                <div id="accordion4" class="collapse"><div style="padding: 8px;">Ac\\xc3\\xa1 hay mucha informaci\\xc3\\xb3n super importante de la vida y cosas as\\xc3\\xad, como turumero y los tostones playeros.</div></div>\\n            </td>\\n        </tr>        <tr data-toggle="collapse" data-target="#accordion4" class="clickable">\\n            <td class="hColumns">15-10-2015</td>\\n            <td>Urinario sin papel toilette...</td>\\n            <td class="hColumns">En espera</td>\\n            <td class="hColumns">MyS-523A</td>\\n            <td class="hColumns"><a href="">Gallinas Voladoras</a></td>\\n            <td>\\n                <a href="www.google.com">\\n                    <img src="\', escape=False)\nresponse.write(URL(\'static\',\'images/icon_inspect.png\'))\nresponse.write(\'" width="15px" ">\\n                </a>\\n            </td>\\n        </tr>\\n        <tr>\\n            <td colspan="6" style="padding:0">\\n                <div id="accordion4" class="collapse"><div style="padding: 8px;">Ac\\xc3\\xa1 hay mucha informaci\\xc3\\xb3n super importante de la vida y cosas as\\xc3\\xad, como turumero y los tostones playeros.</div></div>\\n            </td>\\n        </tr>        <tr data-toggle="collapse" data-target="#accordion4" class="clickable">\\n            <td class="hColumns">15-10-2015</td>\\n            <td>Urinario sin papel toilette...</td>\\n            <td class="hColumns">En espera</td>\\n            <td class="hColumns">MyS-523A</td>\\n            <td class="hColumns"><a href="">Gallinas Voladoras</a></td>\\n            <td>\\n                <a href="www.google.com">\\n                    <img src="\', escape=False)\nresponse.write(URL(\'static\',\'images/icon_inspect.png\'))\nresponse.write(\'" width="15px" ">\\n                </a>\\n            </td>\\n        </tr>\\n        <tr>\\n            <td colspan="6" style="padding:0">\\n                <div id="accordion4" class="collapse"><div style="padding: 8px;">Ac\\xc3\\xa1 hay mucha informaci\\xc3\\xb3n super importante de la vida y cosas as\\xc3\\xad, como turumero y los tostones playeros.</div></div>\\n            </td>\\n        </tr>\\n\\n\\n\\n<!-- borrar hast aca -->\\n\\n\\n\\n    </tbody>\\n</table>\\n                                </div>\\n                            </div>\\n                        </div>\\n                        <div class="row">\\n                            <div class="rounded">\\n                                <div class="roundedwhite">\\n                                    <center>\\n                                        <h3>Solicitudes Antig\\xc3\\xbcas</h3>\\n                                        <hr WIDTH="30%">\\n                                        <p>Blablablablabla, blablabla.</p>\\n                                    </center>\\n<table class="table table-hover table-striped ">\\n    <thead>\\n        <th class="hColumns">Fecha</th>\\n        <th>Descripcion</th>\\n        <th class="hColumns">Estado</th>\\n        <th class="hColumns">Ubicaci\\xc3\\xb3n</th>\\n        <th class="hColumns">Otra Vaina</th>\\n        <th></th>\\n    </thead>\\n\\n    <tbody>\\n        <tr data-toggle="collapse" data-target="#accordion-2" class="clickable">\\n            <td class="hColumns">15-10-2015</td>\\n            <td>Urinario sin papel toilette...</td>\\n            <td class="hColumns">En espera</td>\\n            <td class="hColumns">MyS-523A</td>\\n            <td class="hColumns"><a href="">Gallinas Voladoras</a></td>\\n            <td>\\n                <a href="www.google.com">\\n                    <img src="\', escape=False)\nresponse.write(URL(\'static\',\'images/icon_inspect.png\'))\nresponse.write(\'" width="15px" ">\\n                </a>\\n            </td>\\n        </tr>\\n        <tr>\\n            <td colspan="6" style="padding:0">\\n                <div id="accordion-2" class="collapse"<div style="padding: 8px;">Ac\\xc3\\xa1 hay mucha informaci\\xc3\\xb3n super importante de la vida y cosas as\\xc3\\xad, como turumero y los tostones playeros.</div></div>\\n            </td>\\n        </tr>\\n        <tr data-toggle="collapse" data-target="#accordion2-2" class="clickable">\\n            <td class="hColumns">15-10-2015</td>\\n            <td>Urinario sin papel toilette...</td>\\n            <td class="hColumns">En espera</td>\\n            <td class="hColumns">MyS-523A</td>\\n            <td class="hColumns"><a href="">Gallinas Voladoras</a></td>\\n            <td>\\n                <a href="www.google.com">\\n                    <img src="\', escape=False)\nresponse.write(URL(\'static\',\'images/icon_inspect.png\'))\nresponse.write(\'" width="15px" ">\\n                </a>\\n            </td>\\n        </tr>\\n        <tr>\\n            <td colspan="6" style="padding:0">\\n                <div id="accordion2-2" class="collapse"><div style="padding: 8px;">Ac\\xc3\\xa1 hay mucha informaci\\xc3\\xb3n super importante de la vida y cosas as\\xc3\\xad, como turumero y los tostones playeros.</div></div>\\n            </td>\\n        </tr>\\n    </tbody>\\n</table>\\n                                </div>\\n                            </div>\\n                        </div>\\n                    </div>\\n                    <div class="col-lg-4 rounded righttext">\\n                        <div class="roundedwhite">\\n                            <h3>Notificaciones</h3>\\n                            <hr WIDTH="30%"  ALIGN="RIGHT"></hr>\\n                            <p>A continuaci\\xc3\\xb3n puede encontrar un resumen de sus \\xc3\\xbaltimos movimientos.</p>\\n                            <!--<img src="https://upload.wikimedia.org/wikipedia/commons/thumb/9/98/Truncated_Bar_Graph.svg/2000px-Truncated_Bar_Graph.svg.png" width="100%">-->\\n                        </div>\\n                    </div>\\n                </div>\\n                </div>\\n\\n        <!-- /#page-content-wrapper -->\\n\', escape=False)\nresponse.write(\'\\n        </div>\\n        <!-- /#page-content-wrapper -->\\n\\n    </div>\\n    <!-- /#wrapper -->\\n    <!-- The javascript =============================== -->\\n    <script src="\', escape=False)\nresponse.write(URL(\'static\',\'js/bootstrap.min.js\'))\nresponse.write(\'"></script>\\n    <script src="\', escape=False)\nresponse.write(URL(\'static\',\'js/web2py-bootstrap3.js\'))\nresponse.write(\'"></script>\\n\\n    <!-- jQuery -->\\n    <script src="\', escape=False)\nresponse.write(URL(\'static\',\'js/jquery.js\'))\nresponse.write(\'"></script>\\n\\n    <!-- Bootstrap Core JavaScript -->\\n    <script src="\', escape=False)\nresponse.write(URL(\'static\',\'js/bootstrap.min.js\'))\nresponse.write(\'"></script>\\n\\n    <!-- Menu Toggle Script -->\\n    <script>\\n    $("#menu-toggle").click(function(e) {\\n        e.preventDefault();\\n        $("#wrapper").toggleClass("toggled");\\n        changelogo();\\n    });\\n    </script>\\n\\n    <script>\\n    $(window).on(\\\'resize\\\', function(){\\n            changelogo();\\n    });\\n    $(document).load(function() {\\n       $(\\\'#logob\\\').width($(\\\'#sidebar-wrapper\\\').width());\\n    });\\n    </script>\\n\\n    <script>\\n    function changelogo(){\\n        var sidebarw= $(\\\'#sidebar-wrapper\\\').width();\\n        var actualw = $(\\\'#logob\\\').width();\\n        if (sidebarw >= 250) {\\n            var newsize = sidebarw*2\\n            $(\\\'#logob\\\').animate({\\n                width: newsize+\\\'px\\\'\\n            }, 200);\\n        }\\n        else {\\n            var newsize = 300\\n            $(\\\'#logob\\\').animate({\\n                width: newsize+\\\'px\\\'\\n            }, 200);\\n        };\\n        console.log(sidebarw);\\n        console.log($(\\\'#logob\\\').width());\\n        console.log(\\\'buuuu\\\');\\n    };\\n    </script>\\n\\n    \', escape=False)\nresponse.write(\'\\n    \', escape=False)\nif response.google_analytics_id:\n    response.write(\'\\n    <!-- Analytics ==================================== -->\\n    <script src="\', escape=False)\n    response.write(URL(\'static\',\'js/analytics.min.js\'))\n    response.write(\'"></script>\\n    <script type="text/javascript">\\n      analytics.initialize({\\n      \\\'Google Analytics\\\':{trackingId:\\\'\', escape=False)\n    response.write(response.google_analytics_id)\n    response.write("\'}\\n      });\\n    </script>\\n\\n</body>\\n\\n</html>\\n", escape=False)'
p7
sS'snapshot'
p8
(dp9
sS'traceback'
p10
S'None\n'
p11
s.